target datalayout = "e-m:e-p270:32:32-p271:32:32-p272:64:64-i64:64-i128:128-f80:128-n8:16:32:64-S128"
target triple = "x86_64-pc-linux-gnu"

; Function Attrs: nounwind uwtable
define internal void @SDL_Convert61ToStereo(ptr noundef %0, ptr noundef %1, i32 noundef %2) #0 {
  %4 = alloca ptr, align 8
  %5 = alloca ptr, align 8
  %6 = alloca i32, align 4
  %7 = alloca i32, align 4
  %8 = alloca float, align 4
  %9 = alloca float, align 4
  %10 = alloca float, align 4
  %11 = alloca float, align 4
  %12 = alloca float, align 4
  store ptr %0, ptr %4, align 8
  store ptr %1, ptr %5, align 8
  store i32 %2, ptr %6, align 4
  call void @llvm.lifetime.start.p0(i64 4, ptr %7) #7
  %13 = load i32, ptr %6, align 4
  store i32 %13, ptr %7, align 4
  br label %14

14:                                               ; preds = %65, %3
  %15 = load i32, ptr %7, align 4
  %16 = icmp ne i32 %15, 0
  br i1 %16, label %17, label %72

17:                                               ; preds = %14
  call void @llvm.lifetime.start.p0(i64 4, ptr %8) #7
  %18 = load ptr, ptr %5, align 8
  %19 = getelementptr inbounds float, ptr %18, i64 2
  %20 = load float, ptr %19, align 4
  store float %20, ptr %8, align 4
  call void @llvm.lifetime.start.p0(i64 4, ptr %9) #7
  %21 = load ptr, ptr %5, align 8
  %22 = getelementptr inbounds float, ptr %21, i64 3
  %23 = load float, ptr %22, align 4
  store float %23, ptr %9, align 4
  call void @llvm.lifetime.start.p0(i64 4, ptr %10) #7
  %24 = load ptr, ptr %5, align 8
  %25 = getelementptr inbounds float, ptr %24, i64 4
  %26 = load float, ptr %25, align 4
  store float %26, ptr %10, align 4
  call void @llvm.lifetime.start.p0(i64 4, ptr %11) #7
  %27 = load ptr, ptr %5, align 8
  %28 = getelementptr inbounds float, ptr %27, i64 5
  %29 = load float, ptr %28, align 4
  store float %29, ptr %11, align 4
  call void @llvm.lifetime.start.p0(i64 4, ptr %12) #7
  %30 = load ptr, ptr %5, align 8
  %31 = getelementptr inbounds float, ptr %30, i64 6
  %32 = load float, ptr %31, align 4
  store float %32, ptr %12, align 4
  %33 = load ptr, ptr %5, align 8
  %34 = getelementptr inbounds float, ptr %33, i64 0
  %35 = load float, ptr %34, align 4
  %36 = load float, ptr %8, align 4
  %37 = fmul float %36, 0x3FC654C160000000
  %38 = call float @llvm.fmuladd.f32(float %35, float 0x3FCFAA4CA0000000, float %37)
  %39 = load float, ptr %9, align 4
  %40 = call float @llvm.fmuladd.f32(float %39, float 0x3FB3B13B20000000, float %38)
  %41 = load float, ptr %10, align 4
  %42 = call float @llvm.fmuladd.f32(float %41, float 0x3FC654C160000000, float %40)
  %43 = load float, ptr %11, align 4
  %44 = call float @llvm.fmuladd.f32(float %43, float 0x3FCCF29C00000000, float %42)
  %45 = load float, ptr %12, align 4
  %46 = call float @llvm.fmuladd.f32(float %45, float 0x3FB9C1EE00000000, float %44)
  %47 = load ptr, ptr %4, align 8
  %48 = getelementptr inbounds float, ptr %47, i64 0
  store float %46, ptr %48, align 4
  %49 = load ptr, ptr %5, align 8
  %50 = getelementptr inbounds float, ptr %49, i64 1
  %51 = load float, ptr %50, align 4
  %52 = load float, ptr %8, align 4
  %53 = fmul float %52, 0x3FC654C160000000
  %54 = call float @llvm.fmuladd.f32(float %51, float 0x3FCFAA4CA0000000, float %53)
  %55 = load float, ptr %9, align 4
  %56 = call float @llvm.fmuladd.f32(float %55, float 0x3FB3B13B20000000, float %54)
  %57 = load float, ptr %10, align 4
  %58 = call float @llvm.fmuladd.f32(float %57, float 0x3FC654C160000000, float %56)
  %59 = load float, ptr %11, align 4
  %60 = call float @llvm.fmuladd.f32(float %59, float 0x3FB9C1EE00000000, float %58)
  %61 = load float, ptr %12, align 4
  %62 = call float @llvm.fmuladd.f32(float %61, float 0x3FCCF29C00000000, float %60)
  %63 = load ptr, ptr %4, align 8
  %64 = getelementptr inbounds float, ptr %63, i64 1
  store float %62, ptr %64, align 4
  call void @llvm.lifetime.end.p0(i64 4, ptr %12) #7
  call void @llvm.lifetime.end.p0(i64 4, ptr %11) #7
  call void @llvm.lifetime.end.p0(i64 4, ptr %10) #7
  call void @llvm.lifetime.end.p0(i64 4, ptr %9) #7
  call void @llvm.lifetime.end.p0(i64 4, ptr %8) #7
  br label %65

65:                                               ; preds = %17
  %66 = load i32, ptr %7, align 4
  %67 = add nsw i32 %66, -1
  store i32 %67, ptr %7, align 4
  %68 = load ptr, ptr %5, align 8
  %69 = getelementptr inbounds float, ptr %68, i64 7
  store ptr %69, ptr %5, align 8
  %70 = load ptr, ptr %4, align 8
  %71 = getelementptr inbounds float, ptr %70, i64 2
  store ptr %71, ptr %4, align 8
  br label %14, !llvm.loop !87

72:                                               ; preds = %14
  call void @llvm.lifetime.end.p0(i64 4, ptr %7) #7
  ret void
}